target datalayout = "e-m:e-p270:32:32-p271:32:32-p272:64:64-i64:64-i128:128-f80:128-n8:16:32:64-S128"
target triple = "x86_64-pc-linux-gnu"

%struct._zend_object_handlers = type { i32, ptr, ptr, ptr, ptr, ptr, ptr, ptr, ptr, ptr, ptr, ptr, ptr, ptr, ptr, ptr, ptr, ptr, ptr, ptr, ptr, ptr, ptr, ptr, ptr }
%struct._zend_array = type { %struct._zend_refcounted_h, %union.anon.5, i32, %union.anon.7, i32, i32, i32, i32, i64, ptr }
%struct._zend_refcounted_h = type { i32, %union.anon }
%union.anon = type { i32 }
%union.anon.5 = type { i32 }
%union.anon.7 = type { ptr }
%struct._zend_class_entry = type { i8, ptr, %union.anon.4, i32, i32, i32, i32, ptr, ptr, ptr, %struct._zend_array, %struct._zend_array, %struct._zend_array, ptr, ptr, ptr, ptr, ptr, ptr, ptr, ptr, ptr, ptr, ptr, ptr, ptr, ptr, ptr, ptr, ptr, ptr, ptr, %union.anon.8, ptr, ptr, ptr, ptr, i32, i32, i32, i32, %union.anon.9, ptr, ptr, ptr, ptr, i32, ptr, ptr, %union.anon.10 }
%union.anon.4 = type { ptr }
%union.anon.8 = type { ptr }
%union.anon.9 = type { ptr }
%union.anon.10 = type { %struct.anon.11 }
%struct.anon.11 = type { ptr, i32, i32 }
%struct.anon.12 = type { ptr, ptr }

@finfo_class_entry = hidden global ptr null, align 8
@finfo_object_handlers = internal global %struct._zend_object_handlers zeroinitializer, align 8
@std_object_handlers = external constant %struct._zend_object_handlers, align 8
@zend_string_init_interned = external global ptr, align 8
@.str.15 = private unnamed_addr constant [6 x i8] c"finfo\00", align 1
@.str.21 = private unnamed_addr constant [14 x i8] c"FILEINFO_NONE\00", align 1
@.str.31 = private unnamed_addr constant [17 x i8] c"FILEINFO_SYMLINK\00", align 1
@.str.32 = private unnamed_addr constant [14 x i8] c"FILEINFO_MIME\00", align 1
@.str.33 = private unnamed_addr constant [19 x i8] c"FILEINFO_MIME_TYPE\00", align 1
@.str.34 = private unnamed_addr constant [23 x i8] c"FILEINFO_MIME_ENCODING\00", align 1
@.str.35 = private unnamed_addr constant [17 x i8] c"FILEINFO_DEVICES\00", align 1
@.str.36 = private unnamed_addr constant [18 x i8] c"FILEINFO_CONTINUE\00", align 1
@.str.37 = private unnamed_addr constant [24 x i8] c"FILEINFO_PRESERVE_ATIME\00", align 1
@.str.38 = private unnamed_addr constant [13 x i8] c"FILEINFO_RAW\00", align 1
@.str.39 = private unnamed_addr constant [15 x i8] c"FILEINFO_APPLE\00", align 1
@.str.40 = private unnamed_addr constant [19 x i8] c"FILEINFO_EXTENSION\00", align 1

; Function Attrs: nounwind uwtable
define internal void @register_fileinfo_symbols(i32 noundef %0) #0 {
  %2 = alloca i32, align 4
  store i32 %0, ptr %2, align 4, !tbaa !14
  %3 = load i32, ptr %2, align 4, !tbaa !14
  call void @zend_register_long_constant(ptr noundef @.str.21, i64 noundef 13, i64 noundef 0, i32 noundef 1, i32 noundef %3)
  %4 = load i32, ptr %2, align 4, !tbaa !14
  call void @zend_register_long_constant(ptr noundef @.str.31, i64 noundef 16, i64 noundef 2, i32 noundef 1, i32 noundef %4)
  %5 = load i32, ptr %2, align 4, !tbaa !14
  call void @zend_register_long_constant(ptr noundef @.str.32, i64 noundef 13, i64 noundef 1040, i32 noundef 1, i32 noundef %5)
  %6 = load i32, ptr %2, align 4, !tbaa !14
  call void @zend_register_long_constant(ptr noundef @.str.33, i64 noundef 18, i64 noundef 16, i32 noundef 1, i32 noundef %6)
  %7 = load i32, ptr %2, align 4, !tbaa !14
  call void @zend_register_long_constant(ptr noundef @.str.34, i64 noundef 22, i64 noundef 1024, i32 noundef 1, i32 noundef %7)
  %8 = load i32, ptr %2, align 4, !tbaa !14
  call void @zend_register_long_constant(ptr noundef @.str.35, i64 noundef 16, i64 noundef 8, i32 noundef 1, i32 noundef %8)
  %9 = load i32, ptr %2, align 4, !tbaa !14
  call void @zend_register_long_constant(ptr noundef @.str.36, i64 noundef 17, i64 noundef 32, i32 noundef 1, i32 noundef %9)
  %10 = load i32, ptr %2, align 4, !tbaa !14
  call void @zend_register_long_constant(ptr noundef @.str.37, i64 noundef 23, i64 noundef 128, i32 noundef 1, i32 noundef %10)
  %11 = load i32, ptr %2, align 4, !tbaa !14
  call void @zend_register_long_constant(ptr noundef @.str.38, i64 noundef 12, i64 noundef 256, i32 noundef 1, i32 noundef %11)
  %12 = load i32, ptr %2, align 4, !tbaa !14
  call void @zend_register_long_constant(ptr noundef @.str.39, i64 noundef 14, i64 noundef 2048, i32 noundef 1, i32 noundef %12)
  %13 = load i32, ptr %2, align 4, !tbaa !14
  call void @zend_register_long_constant(ptr noundef @.str.40, i64 noundef 18, i64 noundef 16777216, i32 noundef 1, i32 noundef %13)
  ret void
}

; Function Attrs: nounwind uwtable
define internal ptr @register_class_finfo() #0 {
  %1 = alloca %struct._zend_class_entry, align 8
  %2 = alloca ptr, align 8
  call void @llvm.lifetime.start.p0(i64 520, ptr %1) #11
  call void @llvm.lifetime.start.p0(i64 8, ptr %2) #11
  call void @llvm.memset.p0.i64(ptr align 8 %1, i8 0, i64 520, i1 false)
  %3 = load ptr, ptr @zend_string_init_interned, align 8, !tbaa !13
  %4 = call ptr %3(ptr noundef @.str.15, i64 noundef 5, i1 noundef zeroext true)
  %5 = getelementptr inbounds nuw %struct._zend_class_entry, ptr %1, i32 0, i32 1
  store ptr %4, ptr %5, align 8, !tbaa !38
  %6 = getelementptr inbounds nuw %struct._zend_class_entry, ptr %1, i32 0, i32 29
  store ptr @std_object_handlers, ptr %6, align 8, !tbaa !17
  %7 = getelementptr inbounds nuw %struct._zend_class_entry, ptr %1, i32 0, i32 49
  %8 = getelementptr inbounds nuw %struct.anon.12, ptr %7, i32 0, i32 0
  store ptr @class_finfo_methods, ptr %8, align 8, !tbaa !16
  %9 = call ptr @zend_register_internal_class_with_flags(ptr noundef %1, ptr noundef null, i32 noundef 536870912)
  store ptr %9, ptr %2, align 8, !tbaa !4
  %10 = load ptr, ptr %2, align 8, !tbaa !4
  call void @llvm.lifetime.end.p0(i64 8, ptr %2) #11
  call void @llvm.lifetime.end.p0(i64 520, ptr %1) #11
  ret ptr %10
}

; Function Attrs: nounwind uwtable
define hidden i32 @zm_startup_finfo(i32 noundef %0, i32 noundef %1) #0 {
  %3 = alloca i32, align 4
  %4 = alloca i32, align 4
  store i32 %0, ptr %3, align 4, !tbaa !14
  store i32 %1, ptr %4, align 4, !tbaa !14
  %5 = call ptr @register_class_finfo()
  store ptr %5, ptr @finfo_class_entry, align 8, !tbaa !4
  %6 = load ptr, ptr @finfo_class_entry, align 8, !tbaa !4
  %7 = getelementptr inbounds nuw %struct._zend_class_entry, ptr %6, i32 0, i32 32
  store ptr @finfo_objects_new, ptr %7, align 8, !tbaa !16
  %8 = load ptr, ptr @finfo_class_entry, align 8, !tbaa !4
  %9 = getelementptr inbounds nuw %struct._zend_class_entry, ptr %8, i32 0, i32 29
  store ptr @finfo_object_handlers, ptr %9, align 8, !tbaa !17
  call void @llvm.memcpy.p0.p0.i64(ptr align 8 @finfo_object_handlers, ptr align 8 @std_object_handlers, i64 200, i1 false)
  store i32 8, ptr @finfo_object_handlers, align 8, !tbaa !34
  store ptr @finfo_objects_free, ptr getelementptr inbounds nuw (%struct._zend_object_handlers, ptr @finfo_object_handlers, i32 0, i32 1), align 8, !tbaa !36
  store ptr null, ptr getelementptr inbounds nuw (%struct._zend_object_handlers, ptr @finfo_object_handlers, i32 0, i32 3), align 8, !tbaa !37
  %10 = load i32, ptr %4, align 4, !tbaa !14
  call void @register_fileinfo_symbols(i32 noundef %10)
  ret i32 0
}