; Function Attrs: nounwind uwtable
define hidden noundef i32 @zm_startup_finfo(i32 %0, i32 noundef %1) #0 {
  %3 = alloca %struct._zend_class_entry, align 8
  call void @llvm.lifetime.start.p0(i64 520, ptr nonnull %3) #9
  call void @llvm.memset.p0.i64(ptr noundef nonnull align 8 dereferenceable(520) %3, i8 0, i64 520, i1 false)
  %4 = load ptr, ptr @zend_string_init_interned, align 8, !tbaa !27
  %5 = tail call ptr %4(ptr noundef nonnull @.str.15, i64 noundef 5, i1 noundef zeroext true) #9
  %6 = getelementptr inbounds nuw i8, ptr %3, i64 8
  store ptr %5, ptr %6, align 8, !tbaa !28
  %7 = getelementptr inbounds nuw i8, ptr %3, i64 360
  store ptr @std_object_handlers, ptr %7, align 8, !tbaa !29
  %8 = getelementptr inbounds nuw i8, ptr %3, i64 504
  store ptr @class_finfo_methods, ptr %8, align 8, !tbaa !30
  %9 = call ptr @zend_register_internal_class_with_flags(ptr noundef nonnull %3, ptr noundef null, i32 noundef 536870912) #9
  call void @llvm.lifetime.end.p0(i64 520, ptr nonnull %3) #9
  store ptr %9, ptr @finfo_class_entry, align 8, !tbaa !31
  %10 = getelementptr inbounds nuw i8, ptr %9, i64 384
  store ptr @finfo_objects_new, ptr %10, align 8, !tbaa !30
  %11 = getelementptr inbounds nuw i8, ptr %9, i64 360
  store ptr @finfo_object_handlers, ptr %11, align 8, !tbaa !29
  call void @llvm.memcpy.p0.p0.i64(ptr noundef nonnull align 8 dereferenceable(200) @finfo_object_handlers, ptr noundef nonnull align 8 dereferenceable(200) @std_object_handlers, i64 200, i1 false)
  store i32 8, ptr @finfo_object_handlers, align 8, !tbaa !33
  store ptr @finfo_objects_free, ptr getelementptr inbounds nuw (i8, ptr @finfo_object_handlers, i64 8), align 8, !tbaa !35
  store ptr null, ptr getelementptr inbounds nuw (i8, ptr @finfo_object_handlers, i64 24), align 8, !tbaa !36
  call void @zend_register_long_constant(ptr noundef nonnull @.str.21, i64 noundef 13, i64 noundef 0, i32 noundef 1, i32 noundef %1) #9
  call void @zend_register_long_constant(ptr noundef nonnull @.str.31, i64 noundef 16, i64 noundef 2, i32 noundef 1, i32 noundef %1) #9
  call void @zend_register_long_constant(ptr noundef nonnull @.str.32, i64 noundef 13, i64 noundef 1040, i32 noundef 1, i32 noundef %1) #9
  call void @zend_register_long_constant(ptr noundef nonnull @.str.33, i64 noundef 18, i64 noundef 16, i32 noundef 1, i32 noundef %1) #9
  call void @zend_register_long_constant(ptr noundef nonnull @.str.34, i64 noundef 22, i64 noundef 1024, i32 noundef 1, i32 noundef %1) #9
  call void @zend_register_long_constant(ptr noundef nonnull @.str.35, i64 noundef 16, i64 noundef 8, i32 noundef 1, i32 noundef %1) #9
  call void @zend_register_long_constant(ptr noundef nonnull @.str.36, i64 noundef 17, i64 noundef 32, i32 noundef 1, i32 noundef %1) #9
  call void @zend_register_long_constant(ptr noundef nonnull @.str.37, i64 noundef 23, i64 noundef 128, i32 noundef 1, i32 noundef %1) #9
  call void @zend_register_long_constant(ptr noundef nonnull @.str.38, i64 noundef 12, i64 noundef 256, i32 noundef 1, i32 noundef %1) #9
  call void @zend_register_long_constant(ptr noundef nonnull @.str.39, i64 noundef 14, i64 noundef 2048, i32 noundef 1, i32 noundef %1) #9
  call void @zend_register_long_constant(ptr noundef nonnull @.str.40, i64 noundef 18, i64 noundef 16777216, i32 noundef 1, i32 noundef %1) #9
  ret i32 0
}